; Function Attrs: mustprogress nofree norecurse nosync nounwind willreturn memory(read, inaccessiblemem: none) uwtable
define hidden noundef zeroext i1 @_ZN20non_auf_macro_solver15is_better_macroEP10cond_macroS1_(ptr nocapture noundef nonnull readnone align 8 dereferenceable(44) %this, ptr nocapture noundef readonly %r1, ptr noundef readonly %r2) local_unnamed_addr #5 align 2 {
entry:
  %cmp = icmp eq ptr %r2, null
  br i1 %cmp, label %return, label %lor.lhs.false

lor.lhs.false:                                    ; preds = %entry
  %m_hint.i = getelementptr inbounds i8, ptr %r1, i64 42
  %0 = load i8, ptr %m_hint.i, align 2
  %1 = and i8 %0, 1
  %tobool.i.not = icmp eq i8 %1, 0
  br i1 %tobool.i.not, label %return, label %if.end

if.end:                                           ; preds = %lor.lhs.false
  %m_hint.i4 = getelementptr inbounds i8, ptr %r2, i64 42
  %2 = load i8, ptr %m_hint.i4, align 2
  %3 = and i8 %2, 1
  %tobool.i5.not = icmp eq i8 %3, 0
  br i1 %tobool.i5.not, label %return, label %if.end4

if.end4:                                          ; preds = %if.end
  %m_def.i = getelementptr inbounds i8, ptr %r1, i64 8
  %4 = load ptr, ptr %m_def.i, align 8
  %m_kind.i.i.i = getelementptr inbounds i8, ptr %4, i64 4
  %bf.load.i.i.i = load i32, ptr %m_kind.i.i.i, align 4
  %bf.clear.i.i.i = and i32 %bf.load.i.i.i, 65535
  %cmp.i.i = icmp eq i32 %bf.clear.i.i.i, 0
  br i1 %cmp.i.i, label %_Z9is_groundPK4expr.exit, label %if.end10

_Z9is_groundPK4expr.exit:                         ; preds = %if.end4
  %m_num_args.i.i.i = getelementptr inbounds i8, ptr %4, i64 24
  %5 = load i32, ptr %m_num_args.i.i.i, align 8
  %cmp.i.i.i = icmp eq i32 %5, 0
  %m_args.i.i.i = getelementptr inbounds i8, ptr %4, i64 32
  %idx.ext.i.i.i = zext i32 %5 to i64
  %add.ptr.i.i.i = getelementptr inbounds ptr, ptr %m_args.i.i.i, i64 %idx.ext.i.i.i
  %cond.i.i.i = select i1 %cmp.i.i.i, ptr @_ZN3app16g_constant_flagsE, ptr %add.ptr.i.i.i
  %bf.load.i.i = load i32, ptr %cond.i.i.i, align 4
  %6 = and i32 %bf.load.i.i, 65536
  %tobool.i.i.not = icmp eq i32 %6, 0
  br i1 %tobool.i.i.not, label %if.end10, label %land.lhs.true

land.lhs.true:                                    ; preds = %_Z9is_groundPK4expr.exit
  %m_def.i6 = getelementptr inbounds i8, ptr %r2, i64 8
  %7 = load ptr, ptr %m_def.i6, align 8
  %m_kind.i.i.i7 = getelementptr inbounds i8, ptr %7, i64 4
  %bf.load.i.i.i8 = load i32, ptr %m_kind.i.i.i7, align 4
  %bf.clear.i.i.i9 = and i32 %bf.load.i.i.i8, 65535
  %cmp.i.i10 = icmp eq i32 %bf.clear.i.i.i9, 0
  br i1 %cmp.i.i10, label %_Z9is_groundPK4expr.exit20, label %return

_Z9is_groundPK4expr.exit20:                       ; preds = %land.lhs.true
  %m_num_args.i.i.i12 = getelementptr inbounds i8, ptr %7, i64 24
  %8 = load i32, ptr %m_num_args.i.i.i12, align 8
  %cmp.i.i.i13 = icmp eq i32 %8, 0
  %m_args.i.i.i14 = getelementptr inbounds i8, ptr %7, i64 32
  %idx.ext.i.i.i15 = zext i32 %8 to i64
  %add.ptr.i.i.i16 = getelementptr inbounds ptr, ptr %m_args.i.i.i14, i64 %idx.ext.i.i.i15
  %cond.i.i.i17 = select i1 %cmp.i.i.i13, ptr @_ZN3app16g_constant_flagsE, ptr %add.ptr.i.i.i16
  %bf.load.i.i18 = load i32, ptr %cond.i.i.i17, align 4
  %9 = and i32 %bf.load.i.i18, 65536
  %tobool.i.i19.not = icmp eq i32 %9, 0
  br i1 %tobool.i.i19.not, label %return, label %if.end10

if.end10:                                         ; preds = %if.end4, %_Z9is_groundPK4expr.exit20, %_Z9is_groundPK4expr.exit
  br label %return

return:                                           ; preds = %land.lhs.true, %_Z9is_groundPK4expr.exit20, %if.end, %entry, %lor.lhs.false, %if.end10
  %retval.0 = phi i1 [ false, %if.end10 ], [ true, %lor.lhs.false ], [ true, %entry ], [ false, %if.end ], [ true, %_Z9is_groundPK4expr.exit20 ], [ true, %land.lhs.true ]
  ret i1 %retval.0
}